target datalayout = "e-m:e-p270:32:32-p271:32:32-p272:64:64-i64:64-i128:128-f80:128-n8:16:32:64-S128"
target triple = "x86_64-pc-linux-gnu"

%struct.Vec_Int_t_ = type { i32, i32, ptr }

; Function Attrs: inlinehint nounwind uwtable
define internal void @Abc_InfoSetBit(ptr noundef %0, i32 noundef %1) #4 {
  %3 = alloca ptr, align 8
  %4 = alloca i32, align 4
  store ptr %0, ptr %3, align 8, !tbaa !33
  store i32 %1, ptr %4, align 4, !tbaa !3
  %5 = load i32, ptr %4, align 4, !tbaa !3
  %6 = and i32 %5, 31
  %7 = shl i32 1, %6
  %8 = load ptr, ptr %3, align 8, !tbaa !33
  %9 = load i32, ptr %4, align 4, !tbaa !3
  %10 = ashr i32 %9, 5
  %11 = sext i32 %10 to i64
  %12 = getelementptr inbounds i32, ptr %8, i64 %11
  %13 = load i32, ptr %12, align 4, !tbaa !3
  %14 = or i32 %13, %7
  store i32 %14, ptr %12, align 4, !tbaa !3
  ret void
}

; Function Attrs: inlinehint nounwind uwtable
define internal i32 @Vec_IntEntry(ptr noundef %0, i32 noundef %1) #4 {
  %3 = alloca ptr, align 8
  %4 = alloca i32, align 4
  store ptr %0, ptr %3, align 8, !tbaa !40
  store i32 %1, ptr %4, align 4, !tbaa !3
  %5 = load ptr, ptr %3, align 8, !tbaa !40
  %6 = getelementptr inbounds nuw %struct.Vec_Int_t_, ptr %5, i32 0, i32 2
  %7 = load ptr, ptr %6, align 8, !tbaa !46
  %8 = load i32, ptr %4, align 4, !tbaa !3
  %9 = sext i32 %8 to i64
  %10 = getelementptr inbounds i32, ptr %7, i64 %9
  %11 = load i32, ptr %10, align 4, !tbaa !3
  ret i32 %11
}

; Function Attrs: inlinehint nounwind uwtable
define internal i32 @Vec_IntSize(ptr noundef %0) #4 {
  %2 = alloca ptr, align 8
  store ptr %0, ptr %2, align 8, !tbaa !40
  %3 = load ptr, ptr %2, align 8, !tbaa !40
  %4 = getelementptr inbounds nuw %struct.Vec_Int_t_, ptr %3, i32 0, i32 1
  %5 = load i32, ptr %4, align 4, !tbaa !43
  ret i32 %5
}

; Function Attrs: inlinehint nounwind uwtable
define internal i32 @Abc_BitWordNum(i32 noundef %0) #4 {
  %2 = alloca i32, align 4
  store i32 %0, ptr %2, align 4, !tbaa !3
  %3 = load i32, ptr %2, align 4, !tbaa !3
  %4 = ashr i32 %3, 5
  %5 = load i32, ptr %2, align 4, !tbaa !3
  %6 = and i32 %5, 31
  %7 = icmp sgt i32 %6, 0
  %8 = zext i1 %7 to i32
  %9 = add nsw i32 %4, %8
  ret i32 %9
}

; Function Attrs: nounwind uwtable
define ptr @Aig_ManSuppCharStart(ptr noundef %0, i32 noundef %1) #0 {
  %3 = alloca ptr, align 8
  %4 = alloca i32, align 4
  %5 = alloca ptr, align 8
  %6 = alloca i32, align 4
  %7 = alloca i32, align 4
  %8 = alloca i32, align 4
  store ptr %0, ptr %3, align 8, !tbaa !40
  store i32 %1, ptr %4, align 4, !tbaa !3
  call void @llvm.lifetime.start.p0(i64 8, ptr %5) #11
  call void @llvm.lifetime.start.p0(i64 4, ptr %6) #11
  call void @llvm.lifetime.start.p0(i64 4, ptr %7) #11
  call void @llvm.lifetime.start.p0(i64 4, ptr %8) #11
  %9 = load i32, ptr %4, align 4, !tbaa !3
  %10 = call i32 @Abc_BitWordNum(i32 noundef %9)
  store i32 %10, ptr %8, align 4, !tbaa !3
  %11 = load i32, ptr %8, align 4, !tbaa !3
  %12 = sext i32 %11 to i64
  %13 = mul i64 4, %12
  %14 = call noalias ptr @malloc(i64 noundef %13) #12
  store ptr %14, ptr %5, align 8, !tbaa !33
  %15 = load ptr, ptr %5, align 8, !tbaa !33
  %16 = load i32, ptr %8, align 4, !tbaa !3
  %17 = sext i32 %16 to i64
  %18 = mul i64 4, %17
  call void @llvm.memset.p0.i64(ptr align 4 %15, i8 0, i64 %18, i1 false)
  store i32 0, ptr %6, align 4, !tbaa !3
  br label %19

19:                                               ; preds = %33, %2
  %20 = load i32, ptr %6, align 4, !tbaa !3
  %21 = load ptr, ptr %3, align 8, !tbaa !40
  %22 = call i32 @Vec_IntSize(ptr noundef %21)
  %23 = icmp slt i32 %20, %22
  br i1 %23, label %24, label %28

24:                                               ; preds = %19
  %25 = load ptr, ptr %3, align 8, !tbaa !40
  %26 = load i32, ptr %6, align 4, !tbaa !3
  %27 = call i32 @Vec_IntEntry(ptr noundef %25, i32 noundef %26)
  store i32 %27, ptr %7, align 4, !tbaa !3
  br label %28

28:                                               ; preds = %24, %19
  %29 = phi i1 [ false, %19 ], [ true, %24 ]
  br i1 %29, label %30, label %36

30:                                               ; preds = %28
  %31 = load ptr, ptr %5, align 8, !tbaa !33
  %32 = load i32, ptr %7, align 4, !tbaa !3
  call void @Abc_InfoSetBit(ptr noundef %31, i32 noundef %32)
  br label %33

33:                                               ; preds = %30
  %34 = load i32, ptr %6, align 4, !tbaa !3
  %35 = add nsw i32 %34, 1
  store i32 %35, ptr %6, align 4, !tbaa !3
  br label %19, !llvm.loop !81

36:                                               ; preds = %28
  %37 = load ptr, ptr %5, align 8, !tbaa !33
  call void @llvm.lifetime.end.p0(i64 4, ptr %8) #11
  call void @llvm.lifetime.end.p0(i64 4, ptr %7) #11
  call void @llvm.lifetime.end.p0(i64 4, ptr %6) #11
  call void @llvm.lifetime.end.p0(i64 8, ptr %5) #11
  ret ptr %37
}