; Function Attrs: nofree nounwind memory(readwrite, argmem: read) uwtable
define noalias noundef ptr @Aig_ManSuppCharStart(ptr noundef readonly captures(none) %0, i32 noundef %1) local_unnamed_addr #7 {
  %3 = ashr i32 %1, 5
  %4 = and i32 %1, 31
  %5 = icmp ne i32 %4, 0
  %6 = zext i1 %5 to i32
  %7 = add nsw i32 %3, %6
  %8 = sext i32 %7 to i64
  %9 = shl nsw i64 %8, 2
  %calloc = tail call ptr @calloc(i64 1, i64 %9)
  %10 = getelementptr i8, ptr %0, i64 4
  %.val = load i32, ptr %10, align 4, !tbaa !33
  %11 = icmp sgt i32 %.val, 0
  br i1 %11, label %.lr.ph, label %.critedge

.lr.ph:                                           ; preds = %2
  %12 = getelementptr i8, ptr %0, i64 8
  %.val11 = load ptr, ptr %12, align 8, !tbaa !37
  %wide.trip.count = zext nneg i32 %.val to i64
  br label %13

13:                                               ; preds = %.lr.ph, %13
  %indvars.iv = phi i64 [ 0, %.lr.ph ], [ %indvars.iv.next, %13 ]
  %14 = getelementptr inbounds nuw i32, ptr %.val11, i64 %indvars.iv
  %15 = load i32, ptr %14, align 4, !tbaa !29
  %16 = and i32 %15, 31
  %17 = shl nuw i32 1, %16
  %18 = ashr i32 %15, 5
  %19 = sext i32 %18 to i64
  %20 = getelementptr inbounds i32, ptr %calloc, i64 %19
  %21 = load i32, ptr %20, align 4, !tbaa !29
  %22 = or i32 %17, %21
  store i32 %22, ptr %20, align 4, !tbaa !29
  %indvars.iv.next = add nuw nsw i64 %indvars.iv, 1
  %exitcond.not = icmp eq i64 %indvars.iv.next, %wide.trip.count
  br i1 %exitcond.not, label %.critedge, label %13, !llvm.loop !70

.critedge:                                        ; preds = %13, %2
  ret ptr %calloc
}